target datalayout = "e-m:e-p270:32:32-p271:32:32-p272:64:64-i64:64-i128:128-f80:128-n8:16:32:64-S128"
target triple = "x86_64-pc-linux-gnu"

%struct._zval_struct = type { %union._zend_value, %union.anon, %union.anon.2 }
%union._zend_value = type { i64 }
%union.anon = type { i32 }
%union.anon.2 = type { i32 }
%struct._zend_refcounted_h = type { i32, %union.anon.6 }
%union.anon.6 = type { i32 }
%struct._zend_string = type { %struct._zend_refcounted_h, i64, i64, [1 x i8] }
%struct._zend_object = type { %struct._zend_refcounted_h, i32, i32, ptr, ptr, ptr, [1 x %struct._zval_struct] }
%struct._pdo_dbh_t = type { ptr, ptr, ptr, ptr, i32, ptr, i64, [6 x i8], i32, i32, i32, ptr, i64, i32, [2 x ptr], ptr, ptr, %struct._zval_struct, ptr, ptr, i32 }
%struct._pdo_dbh_object_t = type { ptr, %struct._zend_object }

; Function Attrs: alwaysinline nounwind uwtable
define internal i32 @zend_gc_delref(ptr noundef %0) #3 {
  %2 = alloca ptr, align 8
  store ptr %0, ptr %2, align 8, !tbaa !142
  %3 = load ptr, ptr %2, align 8, !tbaa !142
  %4 = getelementptr inbounds nuw %struct._zend_refcounted_h, ptr %3, i32 0, i32 0
  %5 = load i32, ptr %4, align 4, !tbaa !144
  %6 = icmp ugt i32 %5, 0
  call void @llvm.assume(i1 %6)
  br label %7

7:                                                ; preds = %1
  br label %8

8:                                                ; preds = %7
  %9 = load ptr, ptr %2, align 8, !tbaa !142
  %10 = getelementptr inbounds nuw %struct._zend_refcounted_h, ptr %9, i32 0, i32 0
  %11 = load i32, ptr %10, align 4, !tbaa !144
  %12 = add i32 %11, -1
  store i32 %12, ptr %10, align 4, !tbaa !144
  ret i32 %12
}

; Function Attrs: alwaysinline nounwind uwtable
define internal i32 @zval_gc_flags(i32 noundef %0) #3 {
  %2 = alloca i32, align 4
  store i32 %0, ptr %2, align 4, !tbaa !4
  %3 = load i32, ptr %2, align 4, !tbaa !4
  %4 = lshr i32 %3, 0
  %5 = and i32 %4, 1008
  ret i32 %5
}

; Function Attrs: alwaysinline nounwind uwtable
define internal void @zend_string_release_ex(ptr noundef %0, i1 noundef zeroext %1) #3 {
  %3 = alloca ptr, align 8
  %4 = alloca i8, align 1
  store ptr %0, ptr %3, align 8, !tbaa !16
  %5 = zext i1 %1 to i8
  store i8 %5, ptr %4, align 1, !tbaa !18
  %6 = load ptr, ptr %3, align 8, !tbaa !16
  %7 = getelementptr inbounds nuw %struct._zend_string, ptr %6, i32 0, i32 0
  %8 = getelementptr inbounds nuw %struct._zend_refcounted_h, ptr %7, i32 0, i32 1
  %9 = load i32, ptr %8, align 4, !tbaa !15
  %10 = call i32 @zval_gc_flags(i32 noundef %9)
  %11 = and i32 %10, 64
  %12 = icmp ne i32 %11, 0
  br i1 %12, label %27, label %13

13:                                               ; preds = %2
  %14 = load ptr, ptr %3, align 8, !tbaa !16
  %15 = getelementptr inbounds nuw %struct._zend_string, ptr %14, i32 0, i32 0
  %16 = call i32 @zend_gc_delref(ptr noundef %15)
  %17 = icmp eq i32 %16, 0
  br i1 %17, label %18, label %26

18:                                               ; preds = %13
  %19 = load i8, ptr %4, align 1, !tbaa !18, !range !20, !noundef !21
  %20 = trunc i8 %19 to i1
  br i1 %20, label %21, label %23

21:                                               ; preds = %18
  %22 = load ptr, ptr %3, align 8, !tbaa !16
  call void @free(ptr noundef %22) #14
  br label %25

23:                                               ; preds = %18
  %24 = load ptr, ptr %3, align 8, !tbaa !16
  call void @_efree(ptr noundef %24)
  br label %25

25:                                               ; preds = %23, %21
  br label %26

26:                                               ; preds = %25, %13
  br label %27

27:                                               ; preds = %26, %2
  ret void
}

; Function Attrs: alwaysinline nounwind uwtable
define internal ptr @zend_hash_find_ptr(ptr noundef %0, ptr noundef %1) #3 {
  %3 = alloca ptr, align 8
  %4 = alloca ptr, align 8
  %5 = alloca ptr, align 8
  %6 = alloca ptr, align 8
  %7 = alloca i32, align 4
  store ptr %0, ptr %4, align 8, !tbaa !11
  store ptr %1, ptr %5, align 8, !tbaa !16
  call void @llvm.lifetime.start.p0(i64 8, ptr %6) #14
  %8 = load ptr, ptr %4, align 8, !tbaa !11
  %9 = load ptr, ptr %5, align 8, !tbaa !16
  %10 = call ptr @zend_hash_find(ptr noundef %8, ptr noundef %9)
  store ptr %10, ptr %6, align 8, !tbaa !13
  %11 = load ptr, ptr %6, align 8, !tbaa !13
  %12 = icmp ne ptr %11, null
  br i1 %12, label %13, label %21

13:                                               ; preds = %2
  %14 = load ptr, ptr %6, align 8, !tbaa !13
  %15 = getelementptr inbounds nuw %struct._zval_struct, ptr %14, i32 0, i32 0
  %16 = load ptr, ptr %15, align 8, !tbaa !15
  %17 = icmp ne ptr %16, null
  call void @llvm.assume(i1 %17)
  %18 = load ptr, ptr %6, align 8, !tbaa !13
  %19 = getelementptr inbounds nuw %struct._zval_struct, ptr %18, i32 0, i32 0
  %20 = load ptr, ptr %19, align 8, !tbaa !15
  store ptr %20, ptr %3, align 8
  store i32 1, ptr %7, align 4
  br label %22

21:                                               ; preds = %2
  store ptr null, ptr %3, align 8
  store i32 1, ptr %7, align 4
  br label %22

22:                                               ; preds = %21, %13
  call void @llvm.lifetime.end.p0(i64 8, ptr %6) #14
  %23 = load ptr, ptr %3, align 8
  ret ptr %23
}

; Function Attrs: alwaysinline nounwind uwtable
define internal ptr @zend_string_tolower(ptr noundef %0) #3 {
  %2 = alloca ptr, align 8
  store ptr %0, ptr %2, align 8, !tbaa !16
  %3 = load ptr, ptr %2, align 8, !tbaa !16
  %4 = call ptr @zend_string_tolower_ex(ptr noundef %3, i1 noundef zeroext false)
  ret ptr %4
}

; Function Attrs: inlinehint nounwind uwtable
define internal ptr @php_pdo_dbh_fetch_object(ptr noundef %0) #8 {
  %2 = alloca ptr, align 8
  store ptr %0, ptr %2, align 8, !tbaa !62
  %3 = load ptr, ptr %2, align 8, !tbaa !62
  %4 = getelementptr inbounds i8, ptr %3, i64 -8
  ret ptr %4
}

; Function Attrs: nounwind uwtable
define internal ptr @dbh_method_get(ptr noundef %0, ptr noundef %1, ptr noundef %2) #0 {
  %4 = alloca ptr, align 8
  %5 = alloca ptr, align 8
  %6 = alloca ptr, align 8
  %7 = alloca ptr, align 8
  %8 = alloca ptr, align 8
  %9 = alloca ptr, align 8
  store ptr %0, ptr %4, align 8, !tbaa !206
  store ptr %1, ptr %5, align 8, !tbaa !16
  store ptr %2, ptr %6, align 8, !tbaa !13
  call void @llvm.lifetime.start.p0(i64 8, ptr %7) #14
  store ptr null, ptr %7, align 8, !tbaa !193
  call void @llvm.lifetime.start.p0(i64 8, ptr %8) #14
  %10 = load ptr, ptr %4, align 8, !tbaa !206
  %11 = load ptr, ptr %10, align 8, !tbaa !62
  %12 = call ptr @php_pdo_dbh_fetch_object(ptr noundef %11)
  store ptr %12, ptr %8, align 8, !tbaa !89
  call void @llvm.lifetime.start.p0(i64 8, ptr %9) #14
  %13 = load ptr, ptr %4, align 8, !tbaa !206
  %14 = load ptr, ptr %5, align 8, !tbaa !16
  %15 = load ptr, ptr %6, align 8, !tbaa !13
  %16 = call ptr @zend_std_get_method(ptr noundef %13, ptr noundef %14, ptr noundef %15)
  store ptr %16, ptr %7, align 8, !tbaa !193
  %17 = icmp eq ptr %16, null
  br i1 %17, label %18, label %51

18:                                               ; preds = %3
  %19 = load ptr, ptr %8, align 8, !tbaa !89
  %20 = getelementptr inbounds nuw %struct._pdo_dbh_object_t, ptr %19, i32 0, i32 0
  %21 = load ptr, ptr %20, align 8, !tbaa !91
  %22 = getelementptr inbounds nuw %struct._pdo_dbh_t, ptr %21, i32 0, i32 14
  %23 = getelementptr inbounds [2 x ptr], ptr %22, i64 0, i64 0
  %24 = load ptr, ptr %23, align 8, !tbaa !11
  %25 = icmp ne ptr %24, null
  br i1 %25, label %39, label %26

26:                                               ; preds = %18
  %27 = load ptr, ptr %8, align 8, !tbaa !89
  %28 = call zeroext i1 @pdo_hash_methods(ptr noundef %27, i32 noundef 0)
  br i1 %28, label %29, label %37

29:                                               ; preds = %26
  %30 = load ptr, ptr %8, align 8, !tbaa !89
  %31 = getelementptr inbounds nuw %struct._pdo_dbh_object_t, ptr %30, i32 0, i32 0
  %32 = load ptr, ptr %31, align 8, !tbaa !91
  %33 = getelementptr inbounds nuw %struct._pdo_dbh_t, ptr %32, i32 0, i32 14
  %34 = getelementptr inbounds [2 x ptr], ptr %33, i64 0, i64 0
  %35 = load ptr, ptr %34, align 8, !tbaa !11
  %36 = icmp ne ptr %35, null
  br i1 %36, label %38, label %37

37:                                               ; preds = %29, %26
  br label %52

38:                                               ; preds = %29
  br label %39

39:                                               ; preds = %38, %18
  %40 = load ptr, ptr %5, align 8, !tbaa !16
  %41 = call ptr @zend_string_tolower(ptr noundef %40)
  store ptr %41, ptr %9, align 8, !tbaa !16
  %42 = load ptr, ptr %8, align 8, !tbaa !89
  %43 = getelementptr inbounds nuw %struct._pdo_dbh_object_t, ptr %42, i32 0, i32 0
  %44 = load ptr, ptr %43, align 8, !tbaa !91
  %45 = getelementptr inbounds nuw %struct._pdo_dbh_t, ptr %44, i32 0, i32 14
  %46 = getelementptr inbounds [2 x ptr], ptr %45, i64 0, i64 0
  %47 = load ptr, ptr %46, align 8, !tbaa !11
  %48 = load ptr, ptr %9, align 8, !tbaa !16
  %49 = call ptr @zend_hash_find_ptr(ptr noundef %47, ptr noundef %48)
  store ptr %49, ptr %7, align 8, !tbaa !193
  %50 = load ptr, ptr %9, align 8, !tbaa !16
  call void @zend_string_release_ex(ptr noundef %50, i1 noundef zeroext false)
  br label %51

51:                                               ; preds = %39, %3
  br label %52

52:                                               ; preds = %51, %37
  %53 = load ptr, ptr %7, align 8, !tbaa !193
  call void @llvm.lifetime.end.p0(i64 8, ptr %9) #14
  call void @llvm.lifetime.end.p0(i64 8, ptr %8) #14
  call void @llvm.lifetime.end.p0(i64 8, ptr %7) #14
  ret ptr %53
}