; Function Attrs: nounwind uwtable
define internal ptr @dbh_method_get(ptr noundef %0, ptr noundef %1, ptr noundef %2) #0 {
  %4 = load ptr, ptr %0, align 8, !tbaa !53
  %5 = getelementptr inbounds i8, ptr %4, i64 -8
  %6 = tail call ptr @zend_std_get_method(ptr noundef nonnull %0, ptr noundef %1, ptr noundef %2) #13
  %7 = icmp eq ptr %6, null
  br i1 %7, label %8, label %zend_string_release_ex.exit

8:                                                ; preds = %3
  %9 = load ptr, ptr %5, align 8, !tbaa !90
  %10 = getelementptr inbounds nuw i8, ptr %9, i64 104
  %11 = load ptr, ptr %10, align 8, !tbaa !147
  %.not = icmp eq ptr %11, null
  br i1 %.not, label %12, label %18

12:                                               ; preds = %8
  %13 = tail call zeroext i1 @pdo_hash_methods(ptr noundef nonnull %5, i32 noundef 0)
  br i1 %13, label %14, label %zend_string_release_ex.exit

14:                                               ; preds = %12
  %15 = load ptr, ptr %5, align 8, !tbaa !90
  %16 = getelementptr inbounds nuw i8, ptr %15, i64 104
  %17 = load ptr, ptr %16, align 8, !tbaa !147
  %.not13 = icmp eq ptr %17, null
  br i1 %.not13, label %zend_string_release_ex.exit, label %18

18:                                               ; preds = %14, %8
  %19 = tail call ptr @zend_string_tolower_ex(ptr noundef %1, i1 noundef zeroext false) #13
  %20 = load ptr, ptr %5, align 8, !tbaa !90
  %21 = getelementptr inbounds nuw i8, ptr %20, i64 104
  %22 = load ptr, ptr %21, align 8, !tbaa !147
  %23 = tail call ptr @zend_hash_find(ptr noundef %22, ptr noundef %19) #13
  %.not.i14 = icmp eq ptr %23, null
  br i1 %.not.i14, label %zend_hash_find_ptr.exit, label %24

24:                                               ; preds = %18
  %25 = load ptr, ptr %23, align 8, !tbaa !4, !nonnull !75, !noundef !75
  br label %zend_hash_find_ptr.exit

zend_hash_find_ptr.exit:                          ; preds = %18, %24
  %.0.i = phi ptr [ %25, %24 ], [ null, %18 ]
  %26 = getelementptr inbounds nuw i8, ptr %19, i64 4
  %27 = load i32, ptr %26, align 4, !tbaa !4
  %28 = and i32 %27, 64
  %.not.i = icmp eq i32 %28, 0
  br i1 %.not.i, label %29, label %zend_string_release_ex.exit

29:                                               ; preds = %zend_hash_find_ptr.exit
  %30 = load i32, ptr %19, align 4, !tbaa !7
  %31 = icmp ne i32 %30, 0
  tail call void @llvm.assume(i1 %31)
  %32 = add i32 %30, -1
  store i32 %32, ptr %19, align 4, !tbaa !7
  %33 = icmp eq i32 %32, 0
  br i1 %33, label %34, label %zend_string_release_ex.exit

34:                                               ; preds = %29
  tail call void @_efree(ptr noundef nonnull %19) #13
  br label %zend_string_release_ex.exit

zend_string_release_ex.exit:                      ; preds = %34, %29, %zend_hash_find_ptr.exit, %3, %12, %14
  %.0 = phi ptr [ null, %14 ], [ null, %12 ], [ %6, %3 ], [ %.0.i, %zend_hash_find_ptr.exit ], [ %.0.i, %29 ], [ %.0.i, %34 ]
  ret ptr %.0
}